target datalayout = "e-m:e-p270:32:32-p271:32:32-p272:64:64-i64:64-i128:128-f80:128-n8:16:32:64-S128"
target triple = "x86_64-pc-linux-gnu"

%"struct.Luau::Lexeme" = type { i32, %"struct.Luau::Location", i32, %union.anon }
%"struct.Luau::Location" = type { %"struct.Luau::Position", %"struct.Luau::Position" }
%"struct.Luau::Position" = type { i32, i32 }
%union.anon = type { ptr }
%"class.Luau::Lexer" = type { ptr, i64, i32, i32, i32, %"struct.Luau::Lexeme", %"struct.Luau::Location", ptr, i8, i8, %"class.std::vector" }
%"class.std::vector" = type { %"struct.std::_Vector_base" }
%"struct.std::_Vector_base" = type { %"struct.std::_Vector_base<Luau::Lexer::BraceType, std::allocator<Luau::Lexer::BraceType>>::_Vector_impl" }
%"struct.std::_Vector_base<Luau::Lexer::BraceType, std::allocator<Luau::Lexer::BraceType>>::_Vector_impl" = type { %"struct.std::_Vector_base<Luau::Lexer::BraceType, std::allocator<Luau::Lexer::BraceType>>::_Vector_impl_data" }
%"struct.std::_Vector_base<Luau::Lexer::BraceType, std::allocator<Luau::Lexer::BraceType>>::_Vector_impl_data" = type { ptr, ptr, ptr }

; Function Attrs: mustprogress uwtable
define dso_local noundef nonnull align 8 dereferenceable(32) ptr @_ZN4Luau5Lexer4nextEv(ptr noundef nonnull align 8 dereferenceable(120) %0) #4 align 2 {
  %2 = alloca ptr, align 8
  store ptr %0, ptr %2, align 8, !tbaa !71
  %3 = load ptr, ptr %2, align 8
  %4 = getelementptr inbounds nuw %"class.Luau::Lexer", ptr %3, i32 0, i32 8
  %5 = load i8, ptr %4, align 8, !tbaa !85, !range !15, !noundef !16
  %6 = trunc i8 %5 to i1
  %7 = call noundef nonnull align 8 dereferenceable(32) ptr @_ZN4Luau5Lexer4nextEbb(ptr noundef nonnull align 8 dereferenceable(120) %3, i1 noundef zeroext %6, i1 noundef zeroext true)
  ret ptr %7
}

; Function Attrs: alwaysinline mustprogress nounwind uwtable
define linkonce_odr dso_local void @_ZN4Luau5Lexer7consumeEv(ptr noundef nonnull align 8 dereferenceable(120) %0) #8 comdat align 2 {
  %2 = alloca ptr, align 8
  store ptr %0, ptr %2, align 8, !tbaa !71
  %3 = load ptr, ptr %2, align 8
  %4 = getelementptr inbounds nuw %"class.Luau::Lexer", ptr %3, i32 0, i32 2
  %5 = load i32, ptr %4, align 8, !tbaa !80
  %6 = add i32 %5, 1
  store i32 %6, ptr %4, align 8, !tbaa !80
  ret void
}

; Function Attrs: inlinehint mustprogress nounwind uwtable
define linkonce_odr dso_local noundef zeroext i1 @_ZN4Luau9isNewlineEc(i8 noundef signext %0) #7 comdat {
  %2 = alloca i8, align 1
  store i8 %0, ptr %2, align 1, !tbaa !34
  %3 = load i8, ptr %2, align 1, !tbaa !34
  %4 = sext i8 %3 to i32
  %5 = icmp eq i32 %4, 10
  ret i1 %5
}

; Function Attrs: alwaysinline mustprogress nounwind uwtable
define linkonce_odr dso_local noundef signext i8 @_ZNK4Luau5Lexer6peekchEv(ptr noundef nonnull align 8 dereferenceable(120) %0) #8 comdat align 2 {
  %2 = alloca ptr, align 8
  store ptr %0, ptr %2, align 8, !tbaa !71
  %3 = load ptr, ptr %2, align 8
  %4 = getelementptr inbounds nuw %"class.Luau::Lexer", ptr %3, i32 0, i32 2
  %5 = load i32, ptr %4, align 8, !tbaa !80
  %6 = zext i32 %5 to i64
  %7 = getelementptr inbounds nuw %"class.Luau::Lexer", ptr %3, i32 0, i32 1
  %8 = load i64, ptr %7, align 8, !tbaa !79
  %9 = icmp ult i64 %6, %8
  br i1 %9, label %10, label %19

10:                                               ; preds = %1
  %11 = getelementptr inbounds nuw %"class.Luau::Lexer", ptr %3, i32 0, i32 0
  %12 = load ptr, ptr %11, align 8, !tbaa !73
  %13 = getelementptr inbounds nuw %"class.Luau::Lexer", ptr %3, i32 0, i32 2
  %14 = load i32, ptr %13, align 8, !tbaa !80
  %15 = zext i32 %14 to i64
  %16 = getelementptr inbounds nuw i8, ptr %12, i64 %15
  %17 = load i8, ptr %16, align 1, !tbaa !34
  %18 = sext i8 %17 to i32
  br label %20

19:                                               ; preds = %1
  br label %20

20:                                               ; preds = %19, %10
  %21 = phi i32 [ %18, %10 ], [ 0, %19 ]
  %22 = trunc i32 %21 to i8
  ret i8 %22
}

; Function Attrs: mustprogress uwtable
define dso_local void @_ZN4Luau5Lexer8nextlineEv(ptr noundef nonnull align 8 dereferenceable(120) %0) #4 align 2 {
  %2 = alloca ptr, align 8
  store ptr %0, ptr %2, align 8, !tbaa !71
  %3 = load ptr, ptr %2, align 8
  br label %4

4:                                                ; preds = %18, %1
  %5 = call noundef signext i8 @_ZNK4Luau5Lexer6peekchEv(ptr noundef nonnull align 8 dereferenceable(120) %3)
  %6 = sext i8 %5 to i32
  %7 = icmp ne i32 %6, 0
  br i1 %7, label %8, label %16

8:                                                ; preds = %4
  %9 = call noundef signext i8 @_ZNK4Luau5Lexer6peekchEv(ptr noundef nonnull align 8 dereferenceable(120) %3)
  %10 = sext i8 %9 to i32
  %11 = icmp ne i32 %10, 13
  br i1 %11, label %12, label %16

12:                                               ; preds = %8
  %13 = call noundef signext i8 @_ZNK4Luau5Lexer6peekchEv(ptr noundef nonnull align 8 dereferenceable(120) %3)
  %14 = call noundef zeroext i1 @_ZN4Luau9isNewlineEc(i8 noundef signext %13)
  %15 = xor i1 %14, true
  br label %16

16:                                               ; preds = %12, %8, %4
  %17 = phi i1 [ false, %8 ], [ false, %4 ], [ %15, %12 ]
  br i1 %17, label %18, label %19

18:                                               ; preds = %16
  call void @_ZN4Luau5Lexer7consumeEv(ptr noundef nonnull align 8 dereferenceable(120) %3)
  br label %4, !llvm.loop !101

19:                                               ; preds = %16
  %20 = call noundef nonnull align 8 dereferenceable(32) ptr @_ZN4Luau5Lexer4nextEv(ptr noundef nonnull align 8 dereferenceable(120) %3)
  ret void
}