; Function Attrs: mustprogress uwtable
define dso_local void @_ZN4Luau5Lexer8nextlineEv(ptr noundef nonnull align 8 dereferenceable(120) %0) local_unnamed_addr #5 align 2 {
  %2 = getelementptr inbounds nuw i8, ptr %0, i64 16
  %3 = getelementptr inbounds nuw i8, ptr %0, i64 8
  %4 = load i64, ptr %3, align 8, !tbaa !59
  %.promoted = load i32, ptr %2, align 8, !tbaa !60
  %5 = zext i32 %.promoted to i64
  %6 = icmp ugt i64 %4, %5
  br i1 %6, label %_ZNK4Luau5Lexer6peekchEv.exit3.lr.ph, label %.critedge

_ZNK4Luau5Lexer6peekchEv.exit3.lr.ph:             ; preds = %1
  %7 = load ptr, ptr %0, align 8, !tbaa !51
  br label %_ZNK4Luau5Lexer6peekchEv.exit3

_ZNK4Luau5Lexer6peekchEv.exit3:                   ; preds = %_ZNK4Luau5Lexer6peekchEv.exit3.lr.ph, %12
  %8 = phi i64 [ %5, %_ZNK4Luau5Lexer6peekchEv.exit3.lr.ph ], [ %14, %12 ]
  %9 = phi i32 [ %.promoted, %_ZNK4Luau5Lexer6peekchEv.exit3.lr.ph ], [ %13, %12 ]
  %10 = getelementptr inbounds nuw i8, ptr %7, i64 %8
  %11 = load i8, ptr %10, align 1, !tbaa !15
  switch i8 %11, label %12 [
    i8 13, label %.critedge
    i8 10, label %.critedge
    i8 0, label %.critedge
  ]

12:                                               ; preds = %_ZNK4Luau5Lexer6peekchEv.exit3
  %13 = add i32 %9, 1
  store i32 %13, ptr %2, align 8, !tbaa !60
  %14 = zext i32 %13 to i64
  %15 = icmp ugt i64 %4, %14
  br i1 %15, label %_ZNK4Luau5Lexer6peekchEv.exit3, label %.critedge, !llvm.loop !87

.critedge:                                        ; preds = %12, %_ZNK4Luau5Lexer6peekchEv.exit3, %_ZNK4Luau5Lexer6peekchEv.exit3, %_ZNK4Luau5Lexer6peekchEv.exit3, %1
  %16 = getelementptr inbounds nuw i8, ptr %0, i64 88
  %17 = load i8, ptr %16, align 8, !tbaa !69, !range !64, !noundef !65
  %18 = trunc nuw i8 %17 to i1
  %19 = tail call noundef nonnull align 8 dereferenceable(32) ptr @_ZN4Luau5Lexer4nextEbb(ptr noundef nonnull align 8 dereferenceable(120) %0, i1 noundef zeroext %18, i1 noundef zeroext true)
  ret void
}